; Function Attrs: mustprogress uwtable
define void @_ZN7openvdb5v11_02io14GridDescriptor18stringAsUniqueNameERKNSt7__cxx1112basic_stringIcSt11char_traitsIcESaIcEEE(ptr noalias nonnull sret(%"class.std::__cxx11::basic_string") align 8 %agg.result, ptr noundef nonnull align 8 dereferenceable(32) %s) local_unnamed_addr #5 align 2 personality ptr @__gxx_personality_v0 {
entry:
  %ref.tmp = alloca %"class.std::reverse_iterator", align 8
  tail call void @_ZNSt7__cxx1112basic_stringIcSt11char_traitsIcESaIcEEC1ERKS4_(ptr noundef nonnull align 8 dereferenceable(32) %agg.result, ptr noundef nonnull align 8 dereferenceable(32) %s)
  %call = tail call noundef zeroext i1 @_ZNKSt7__cxx1112basic_stringIcSt11char_traitsIcESaIcEE5emptyEv(ptr noundef nonnull align 8 dereferenceable(32) %agg.result) #11
  br i1 %call, label %nrvo.skipdtor, label %land.rhs

land.rhs:                                         ; preds = %entry
  call void @_ZNSt7__cxx1112basic_stringIcSt11char_traitsIcESaIcEE6rbeginEv(ptr nonnull sret(%"class.std::reverse_iterator") align 8 %ref.tmp, ptr noundef nonnull align 8 dereferenceable(32) %agg.result) #11
  %0 = load i64, ptr %ref.tmp, align 8
  %1 = inttoptr i64 %0 to ptr
  %incdec.ptr.i.i = getelementptr inbounds i8, ptr %1, i64 -1
  %2 = load i8, ptr %incdec.ptr.i.i, align 1
  %cmp = icmp eq i8 %2, 93
  br i1 %cmp, label %if.then, label %nrvo.skipdtor

if.then:                                          ; preds = %land.rhs
  %call2 = call noundef i64 @_ZNKSt7__cxx1112basic_stringIcSt11char_traitsIcESaIcEE4findEPKcm(ptr noundef nonnull align 8 dereferenceable(32) %agg.result, ptr noundef nonnull @.str.5, i64 noundef 0) #11
  %cmp3.not = icmp eq i64 %call2, -1
  br i1 %cmp3.not, label %nrvo.skipdtor, label %if.then4

if.then4:                                         ; preds = %if.then
  %call5 = call noundef i64 @_ZNKSt7__cxx1112basic_stringIcSt11char_traitsIcESaIcEE4sizeEv(ptr noundef nonnull align 8 dereferenceable(32) %agg.result) #11
  %sub = add i64 %call5, -1
  invoke void @_ZNSt7__cxx1112basic_stringIcSt11char_traitsIcESaIcEE6resizeEm(ptr noundef nonnull align 8 dereferenceable(32) %agg.result, i64 noundef %sub)
          to label %invoke.cont6 unwind label %lpad

invoke.cont6:                                     ; preds = %if.then4
  %call7 = call noundef i64 @_ZNKSt7__cxx1112basic_stringIcSt11char_traitsIcESaIcEE4findEPKcm(ptr noundef nonnull align 8 dereferenceable(32) %agg.result, ptr noundef nonnull @.str.5, i64 noundef 0) #11
  %call9 = invoke noundef nonnull align 8 dereferenceable(32) ptr @_ZNSt7__cxx1112basic_stringIcSt11char_traitsIcESaIcEE7replaceEmmPKc(ptr noundef nonnull align 8 dereferenceable(32) %agg.result, i64 noundef %call7, i64 noundef 1, ptr noundef nonnull @.str.13)
          to label %nrvo.skipdtor unwind label %lpad

lpad:                                             ; preds = %invoke.cont6, %if.then4
  %3 = landingpad { ptr, i32 }
          cleanup
  call void @_ZNSt7__cxx1112basic_stringIcSt11char_traitsIcESaIcEED1Ev(ptr noundef nonnull align 8 dereferenceable(32) %agg.result) #11
  resume { ptr, i32 } %3

nrvo.skipdtor:                                    ; preds = %land.rhs, %invoke.cont6, %if.then, %entry
  ret void
}